target datalayout = "e-m:e-p270:32:32-p271:32:32-p272:64:64-i64:64-i128:128-f80:128-n8:16:32:64-S128"
target triple = "x86_64-pc-linux-gnu"

%"struct.rocksdb::Cache::CacheItemHelper" = type { ptr, ptr, ptr, ptr, i32, ptr }
%"class.rocksdb::Status" = type { i8, i8, i8, i8, i8, i8, %"class.std::unique_ptr" }
%"class.std::unique_ptr" = type { %"struct.std::__uniq_ptr_data" }
%"struct.std::__uniq_ptr_data" = type { %"class.std::__uniq_ptr_impl" }
%"class.std::__uniq_ptr_impl" = type { %"class.std::tuple" }
%"class.std::tuple" = type { %"struct.std::_Tuple_impl" }
%"struct.std::_Tuple_impl" = type { %"struct.std::_Head_base.1" }
%"struct.std::_Head_base.1" = type { ptr }
%"struct.rocksdb::TieredSecondaryCache::CreateContext" = type { ptr, i8, ptr, ptr, %"class.std::shared_ptr", ptr, ptr }
%"class.std::shared_ptr" = type { %"class.std::__shared_ptr" }
%"class.std::__shared_ptr" = type { ptr, %"class.std::__shared_count" }
%"class.std::__shared_count" = type { ptr }

; Function Attrs: mustprogress nounwind uwtable
define linkonce_odr noundef nonnull align 1 dereferenceable(1) ptr @_ZNSt10_Head_baseILm1ESt14default_deleteIA_KcELb1EE7_M_headERS4_(ptr noundef nonnull align 1 dereferenceable(1) %0) #3 comdat align 2 {
  %2 = alloca ptr, align 8
  store ptr %0, ptr %2, align 8, !tbaa !131
  %3 = load ptr, ptr %2, align 8, !tbaa !131
  ret ptr %3
}

; Function Attrs: mustprogress nounwind uwtable
define linkonce_odr noundef nonnull align 1 dereferenceable(1) ptr @_ZNSt11_Tuple_implILm1EJSt14default_deleteIA_KcEEE7_M_headERS4_(ptr noundef nonnull align 1 dereferenceable(1) %0) #3 comdat align 2 {
  %2 = alloca ptr, align 8
  store ptr %0, ptr %2, align 8, !tbaa !129
  %3 = load ptr, ptr %2, align 8, !tbaa !129
  %4 = call noundef nonnull align 1 dereferenceable(1) ptr @_ZNSt10_Head_baseILm1ESt14default_deleteIA_KcELb1EE7_M_headERS4_(ptr noundef nonnull align 1 dereferenceable(1) %3) #11
  ret ptr %4
}

; Function Attrs: mustprogress nounwind uwtable
define linkonce_odr noundef nonnull align 8 dereferenceable(8) ptr @_ZNSt10_Head_baseILm0EPKcLb0EE7_M_headERS2_(ptr noundef nonnull align 8 dereferenceable(8) %0) #3 comdat align 2 {
  %2 = alloca ptr, align 8
  store ptr %0, ptr %2, align 8, !tbaa !127
  %3 = load ptr, ptr %2, align 8, !tbaa !127
  %4 = getelementptr inbounds nuw %"struct.std::_Head_base.1", ptr %3, i32 0, i32 0
  ret ptr %4
}

; Function Attrs: mustprogress nounwind uwtable
define linkonce_odr noundef nonnull align 1 dereferenceable(1) ptr @_ZSt12__get_helperILm1ESt14default_deleteIA_KcEJEERT0_RSt11_Tuple_implIXT_EJS4_DpT1_EE(ptr noundef nonnull align 1 dereferenceable(1) %0) #3 comdat {
  %2 = alloca ptr, align 8
  store ptr %0, ptr %2, align 8, !tbaa !129
  %3 = load ptr, ptr %2, align 8, !tbaa !129
  %4 = call noundef nonnull align 1 dereferenceable(1) ptr @_ZNSt11_Tuple_implILm1EJSt14default_deleteIA_KcEEE7_M_headERS4_(ptr noundef nonnull align 1 dereferenceable(1) %3) #11
  ret ptr %4
}

; Function Attrs: mustprogress nounwind uwtable
define linkonce_odr noundef nonnull align 8 dereferenceable(8) ptr @_ZNSt11_Tuple_implILm0EJPKcSt14default_deleteIA_S0_EEE7_M_headERS5_(ptr noundef nonnull align 8 dereferenceable(8) %0) #3 comdat align 2 {
  %2 = alloca ptr, align 8
  store ptr %0, ptr %2, align 8, !tbaa !125
  %3 = load ptr, ptr %2, align 8, !tbaa !125
  %4 = call noundef nonnull align 8 dereferenceable(8) ptr @_ZNSt10_Head_baseILm0EPKcLb0EE7_M_headERS2_(ptr noundef nonnull align 8 dereferenceable(8) %3) #11
  ret ptr %4
}

; Function Attrs: mustprogress nounwind uwtable
define linkonce_odr noundef nonnull align 1 dereferenceable(1) ptr @_ZSt3getILm1EJPKcSt14default_deleteIA_S0_EEERNSt13tuple_elementIXT_ESt5tupleIJDpT0_EEE4typeERS9_(ptr noundef nonnull align 8 dereferenceable(8) %0) #3 comdat {
  %2 = alloca ptr, align 8
  store ptr %0, ptr %2, align 8, !tbaa !123
  %3 = load ptr, ptr %2, align 8, !tbaa !123
  %4 = call noundef nonnull align 1 dereferenceable(1) ptr @_ZSt12__get_helperILm1ESt14default_deleteIA_KcEJEERT0_RSt11_Tuple_implIXT_EJS4_DpT1_EE(ptr noundef nonnull align 1 dereferenceable(1) %3) #11
  ret ptr %4
}

; Function Attrs: mustprogress nounwind uwtable
define linkonce_odr noundef nonnull align 8 dereferenceable(8) ptr @_ZSt12__get_helperILm0EPKcJSt14default_deleteIA_S0_EEERT0_RSt11_Tuple_implIXT_EJS5_DpT1_EE(ptr noundef nonnull align 8 dereferenceable(8) %0) #3 comdat {
  %2 = alloca ptr, align 8
  store ptr %0, ptr %2, align 8, !tbaa !125
  %3 = load ptr, ptr %2, align 8, !tbaa !125
  %4 = call noundef nonnull align 8 dereferenceable(8) ptr @_ZNSt11_Tuple_implILm0EJPKcSt14default_deleteIA_S0_EEE7_M_headERS5_(ptr noundef nonnull align 8 dereferenceable(8) %3) #11
  ret ptr %4
}

; Function Attrs: mustprogress nounwind uwtable
define linkonce_odr noundef nonnull align 1 dereferenceable(1) ptr @_ZNSt15__uniq_ptr_implIKcSt14default_deleteIA_S0_EE10_M_deleterEv(ptr noundef nonnull align 8 dereferenceable(8) %0) #3 comdat align 2 {
  %2 = alloca ptr, align 8
  store ptr %0, ptr %2, align 8, !tbaa !119
  %3 = load ptr, ptr %2, align 8
  %4 = getelementptr inbounds nuw %"class.std::__uniq_ptr_impl", ptr %3, i32 0, i32 0
  %5 = call noundef nonnull align 1 dereferenceable(1) ptr @_ZSt3getILm1EJPKcSt14default_deleteIA_S0_EEERNSt13tuple_elementIXT_ESt5tupleIJDpT0_EEE4typeERS9_(ptr noundef nonnull align 8 dereferenceable(8) %4) #11
  ret ptr %5
}

; Function Attrs: mustprogress nounwind uwtable
define linkonce_odr noundef nonnull align 8 dereferenceable(8) ptr @_ZSt3getILm0EJPKcSt14default_deleteIA_S0_EEERNSt13tuple_elementIXT_ESt5tupleIJDpT0_EEE4typeERS9_(ptr noundef nonnull align 8 dereferenceable(8) %0) #3 comdat {
  %2 = alloca ptr, align 8
  store ptr %0, ptr %2, align 8, !tbaa !123
  %3 = load ptr, ptr %2, align 8, !tbaa !123
  %4 = call noundef nonnull align 8 dereferenceable(8) ptr @_ZSt12__get_helperILm0EPKcJSt14default_deleteIA_S0_EEERT0_RSt11_Tuple_implIXT_EJS5_DpT1_EE(ptr noundef nonnull align 8 dereferenceable(8) %3) #11
  ret ptr %4
}

; Function Attrs: noinline noreturn nounwind uwtable
define linkonce_odr hidden void @__clang_call_terminate(ptr noundef %0) #8 comdat {
  %2 = call ptr @__cxa_begin_catch(ptr %0) #11
  call void @_ZSt9terminatev() #20
  unreachable
}

; Function Attrs: mustprogress nounwind uwtable
define linkonce_odr void @_ZNKSt14default_deleteIA_KcEclIS0_EENSt9enable_ifIXsr14is_convertibleIPA_T_PS1_EE5valueEvE4typeEPS5_(ptr noundef nonnull align 1 dereferenceable(1) %0, ptr noundef %1) #3 comdat align 2 {
  %3 = alloca ptr, align 8
  %4 = alloca ptr, align 8
  store ptr %0, ptr %3, align 8, !tbaa !121
  store ptr %1, ptr %4, align 8, !tbaa !113
  %5 = load ptr, ptr %4, align 8, !tbaa !113
  %6 = icmp eq ptr %5, null
  br i1 %6, label %8, label %7

7:                                                ; preds = %2
  call void @_ZdaPv(ptr noundef %5) #22
  br label %8

8:                                                ; preds = %7, %2
  ret void
}

; Function Attrs: mustprogress nounwind uwtable
define linkonce_odr noundef nonnull align 1 dereferenceable(1) ptr @_ZNSt10unique_ptrIA_KcSt14default_deleteIS1_EE11get_deleterEv(ptr noundef nonnull align 8 dereferenceable(8) %0) #3 comdat align 2 {
  %2 = alloca ptr, align 8
  store ptr %0, ptr %2, align 8, !tbaa !115
  %3 = load ptr, ptr %2, align 8
  %4 = getelementptr inbounds nuw %"class.std::unique_ptr", ptr %3, i32 0, i32 0
  %5 = call noundef nonnull align 1 dereferenceable(1) ptr @_ZNSt15__uniq_ptr_implIKcSt14default_deleteIA_S0_EE10_M_deleterEv(ptr noundef nonnull align 8 dereferenceable(8) %4) #11
  ret ptr %5
}

; Function Attrs: mustprogress nounwind uwtable
define linkonce_odr noundef nonnull align 8 dereferenceable(8) ptr @_ZNSt15__uniq_ptr_implIKcSt14default_deleteIA_S0_EE6_M_ptrEv(ptr noundef nonnull align 8 dereferenceable(8) %0) #3 comdat align 2 {
  %2 = alloca ptr, align 8
  store ptr %0, ptr %2, align 8, !tbaa !119
  %3 = load ptr, ptr %2, align 8
  %4 = getelementptr inbounds nuw %"class.std::__uniq_ptr_impl", ptr %3, i32 0, i32 0
  %5 = call noundef nonnull align 8 dereferenceable(8) ptr @_ZSt3getILm0EJPKcSt14default_deleteIA_S0_EEERNSt13tuple_elementIXT_ESt5tupleIJDpT0_EEE4typeERS9_(ptr noundef nonnull align 8 dereferenceable(8) %4) #11
  ret ptr %5
}

; Function Attrs: mustprogress nounwind uwtable
define linkonce_odr void @_ZNSt10unique_ptrIA_KcSt14default_deleteIS1_EED2Ev(ptr noundef nonnull align 8 dereferenceable(8) %0) unnamed_addr #3 comdat align 2 personality ptr @__gxx_personality_v0 {
  %2 = alloca ptr, align 8
  %3 = alloca ptr, align 8
  store ptr %0, ptr %2, align 8, !tbaa !115
  %4 = load ptr, ptr %2, align 8
  call void @llvm.lifetime.start.p0(i64 8, ptr %3) #11
  %5 = getelementptr inbounds nuw %"class.std::unique_ptr", ptr %4, i32 0, i32 0
  %6 = call noundef nonnull align 8 dereferenceable(8) ptr @_ZNSt15__uniq_ptr_implIKcSt14default_deleteIA_S0_EE6_M_ptrEv(ptr noundef nonnull align 8 dereferenceable(8) %5) #11
  store ptr %6, ptr %3, align 8, !tbaa !117
  %7 = load ptr, ptr %3, align 8, !tbaa !117
  %8 = load ptr, ptr %7, align 8, !tbaa !113
  %9 = icmp ne ptr %8, null
  br i1 %9, label %10, label %15

10:                                               ; preds = %1
  %11 = call noundef nonnull align 1 dereferenceable(1) ptr @_ZNSt10unique_ptrIA_KcSt14default_deleteIS1_EE11get_deleterEv(ptr noundef nonnull align 8 dereferenceable(8) %4) #11
  %12 = load ptr, ptr %3, align 8, !tbaa !117
  %13 = load ptr, ptr %12, align 8, !tbaa !113
  invoke void @_ZNKSt14default_deleteIA_KcEclIS0_EENSt9enable_ifIXsr14is_convertibleIPA_T_PS1_EE5valueEvE4typeEPS5_(ptr noundef nonnull align 1 dereferenceable(1) %11, ptr noundef %13)
          to label %14 unwind label %17

14:                                               ; preds = %10
  br label %15

15:                                               ; preds = %14, %1
  %16 = load ptr, ptr %3, align 8, !tbaa !117
  store ptr null, ptr %16, align 8, !tbaa !113
  call void @llvm.lifetime.end.p0(i64 8, ptr %3) #11
  ret void

17:                                               ; preds = %10
  %18 = landingpad { ptr, i32 }
          catch ptr null
  %19 = extractvalue { ptr, i32 } %18, 0
  call void @__clang_call_terminate(ptr %19) #20
  unreachable
}

; Function Attrs: inlinehint mustprogress nounwind uwtable
define linkonce_odr void @_ZNK7rocksdb6Status11MarkCheckedEv(ptr noundef nonnull align 8 dereferenceable(16) %0) #4 comdat align 2 {
  %2 = alloca ptr, align 8
  store ptr %0, ptr %2, align 8, !tbaa !46
  ret void
}

; Function Attrs: inlinehint mustprogress uwtable
define linkonce_odr void @_ZN7rocksdb10RecordTickEPNS_10StatisticsEjm(ptr noundef %0, i32 noundef %1, i64 noundef %2) #2 comdat {
  %4 = alloca ptr, align 8
  %5 = alloca i32, align 4
  %6 = alloca i64, align 8
  store ptr %0, ptr %4, align 8, !tbaa !48
  store i32 %1, ptr %5, align 4, !tbaa !49
  store i64 %2, ptr %6, align 8, !tbaa !51
  %7 = load ptr, ptr %4, align 8, !tbaa !48
  %8 = icmp ne ptr %7, null
  br i1 %8, label %9, label %16

9:                                                ; preds = %3
  %10 = load ptr, ptr %4, align 8, !tbaa !48
  %11 = load i32, ptr %5, align 4, !tbaa !49
  %12 = load i64, ptr %6, align 8, !tbaa !51
  %13 = load ptr, ptr %10, align 8, !tbaa !38
  %14 = getelementptr inbounds ptr, ptr %13, i64 22
  %15 = load ptr, ptr %14, align 8
  call void %15(ptr noundef nonnull align 8 dereferenceable(33) %10, i32 noundef %11, i64 noundef %12)
  br label %16

16:                                               ; preds = %9, %3
  ret void
}

; Function Attrs: mustprogress nounwind uwtable
define linkonce_odr void @_ZN7rocksdb6StatusD2Ev(ptr noundef nonnull align 8 dereferenceable(16) %0) unnamed_addr #3 comdat align 2 {
  %2 = alloca ptr, align 8
  store ptr %0, ptr %2, align 8, !tbaa !46
  %3 = load ptr, ptr %2, align 8
  %4 = getelementptr inbounds nuw %"class.rocksdb::Status", ptr %3, i32 0, i32 6
  call void @_ZNSt10unique_ptrIA_KcSt14default_deleteIS1_EED2Ev(ptr noundef nonnull align 8 dereferenceable(8) %4) #11
  ret void
}

; Function Attrs: inlinehint mustprogress uwtable
define linkonce_odr void @_ZNK7rocksdb6Status20PermitUncheckedErrorEv(ptr noundef nonnull align 8 dereferenceable(16) %0) #2 comdat align 2 {
  %2 = alloca ptr, align 8
  store ptr %0, ptr %2, align 8, !tbaa !46
  %3 = load ptr, ptr %2, align 8
  call void @_ZNK7rocksdb6Status11MarkCheckedEv(ptr noundef nonnull align 8 dereferenceable(16) %3)
  ret void
}

; Function Attrs: mustprogress uwtable
define void @_ZN7rocksdb20TieredSecondaryCache20MaybeInsertAndCreateERKNS_5SliceENS_15CompressionTypeENS_9CacheTierEPNS_5Cache13CreateContextEPNS_15MemoryAllocatorEPPvPm(ptr dead_on_unwind noalias writable sret(%"class.rocksdb::Status") align 8 %0, ptr noundef nonnull align 8 dereferenceable(16) %1, i8 noundef zeroext %2, i8 noundef zeroext %3, ptr noundef %4, ptr noundef %5, ptr noundef %6, ptr noundef %7) #0 align 2 personality ptr @__gxx_personality_v0 {
  %9 = alloca ptr, align 8
  %10 = alloca ptr, align 8
  %11 = alloca i8, align 1
  %12 = alloca i8, align 1
  %13 = alloca ptr, align 8
  %14 = alloca ptr, align 8
  %15 = alloca ptr, align 8
  %16 = alloca ptr, align 8
  %17 = alloca ptr, align 8
  %18 = alloca %"class.rocksdb::Status", align 8
  %19 = alloca ptr, align 8
  %20 = alloca i32, align 4
  store ptr %0, ptr %9, align 8
  store ptr %1, ptr %10, align 8, !tbaa !4
  store i8 %2, ptr %11, align 1, !tbaa !9
  store i8 %3, ptr %12, align 1, !tbaa !11
  store ptr %4, ptr %13, align 8, !tbaa !13
  store ptr %5, ptr %14, align 8, !tbaa !15
  store ptr %6, ptr %15, align 8, !tbaa !17
  store ptr %7, ptr %16, align 8, !tbaa !19
  call void @llvm.lifetime.start.p0(i64 8, ptr %17) #11
  %21 = load ptr, ptr %13, align 8, !tbaa !13
  store ptr %21, ptr %17, align 8, !tbaa !21
  %22 = load ptr, ptr %17, align 8, !tbaa !21
  %23 = getelementptr inbounds nuw %"struct.rocksdb::TieredSecondaryCache::CreateContext", ptr %22, i32 0, i32 1
  %24 = load i8, ptr %23, align 8, !tbaa !23, !range !34, !noundef !35
  %25 = trunc i8 %24 to i1
  br i1 %25, label %51, label %26

26:                                               ; preds = %8
  %27 = load i8, ptr %11, align 1, !tbaa !9
  %28 = zext i8 %27 to i32
  %29 = icmp ne i32 %28, 0
  br i1 %29, label %30, label %51

30:                                               ; preds = %26
  call void @llvm.lifetime.start.p0(i64 16, ptr %18) #11
  %31 = load ptr, ptr %17, align 8, !tbaa !21
  %32 = getelementptr inbounds nuw %"struct.rocksdb::TieredSecondaryCache::CreateContext", ptr %31, i32 0, i32 5
  %33 = load ptr, ptr %32, align 8, !tbaa !36
  %34 = load ptr, ptr %17, align 8, !tbaa !21
  %35 = getelementptr inbounds nuw %"struct.rocksdb::TieredSecondaryCache::CreateContext", ptr %34, i32 0, i32 0
  %36 = load ptr, ptr %35, align 8, !tbaa !37
  %37 = load ptr, ptr %10, align 8, !tbaa !4
  %38 = load i8, ptr %11, align 1, !tbaa !9
  %39 = load i8, ptr %12, align 1, !tbaa !11
  %40 = load ptr, ptr %33, align 8, !tbaa !38
  %41 = getelementptr inbounds ptr, ptr %40, i64 20
  %42 = load ptr, ptr %41, align 8
  call void %42(ptr dead_on_unwind writable sret(%"class.rocksdb::Status") align 8 %18, ptr noundef nonnull align 8 dereferenceable(32) %33, ptr noundef nonnull align 8 dereferenceable(16) %36, ptr noundef nonnull align 8 dereferenceable(16) %37, i8 noundef zeroext %38, i8 noundef zeroext %39)
  invoke void @_ZNK7rocksdb6Status20PermitUncheckedErrorEv(ptr noundef nonnull align 8 dereferenceable(16) %18)
          to label %43 unwind label %47

43:                                               ; preds = %30
  call void @_ZN7rocksdb6StatusD2Ev(ptr noundef nonnull align 8 dereferenceable(16) %18) #11
  call void @llvm.lifetime.end.p0(i64 16, ptr %18) #11
  %44 = load ptr, ptr %17, align 8, !tbaa !21
  %45 = getelementptr inbounds nuw %"struct.rocksdb::TieredSecondaryCache::CreateContext", ptr %44, i32 0, i32 6
  %46 = load ptr, ptr %45, align 8, !tbaa !40
  call void @_ZN7rocksdb10RecordTickEPNS_10StatisticsEjm(ptr noundef %46, i32 noundef 33, i64 noundef 1)
  br label %55

47:                                               ; preds = %30
  %48 = landingpad { ptr, i32 }
          cleanup
  %49 = extractvalue { ptr, i32 } %48, 0
  store ptr %49, ptr %19, align 8
  %50 = extractvalue { ptr, i32 } %48, 1
  store i32 %50, ptr %20, align 4
  call void @_ZN7rocksdb6StatusD2Ev(ptr noundef nonnull align 8 dereferenceable(16) %18) #11
  call void @llvm.lifetime.end.p0(i64 16, ptr %18) #11
  call void @llvm.lifetime.end.p0(i64 8, ptr %17) #11
  br label %70

51:                                               ; preds = %26, %8
  %52 = load ptr, ptr %17, align 8, !tbaa !21
  %53 = getelementptr inbounds nuw %"struct.rocksdb::TieredSecondaryCache::CreateContext", ptr %52, i32 0, i32 6
  %54 = load ptr, ptr %53, align 8, !tbaa !40
  call void @_ZN7rocksdb10RecordTickEPNS_10StatisticsEjm(ptr noundef %54, i32 noundef 34, i64 noundef 1)
  br label %55

55:                                               ; preds = %51, %43
  %56 = load ptr, ptr %17, align 8, !tbaa !21
  %57 = getelementptr inbounds nuw %"struct.rocksdb::TieredSecondaryCache::CreateContext", ptr %56, i32 0, i32 2
  %58 = load ptr, ptr %57, align 8, !tbaa !41
  %59 = getelementptr inbounds nuw %"struct.rocksdb::Cache::CacheItemHelper", ptr %58, i32 0, i32 3
  %60 = load ptr, ptr %59, align 8, !tbaa !42
  %61 = load ptr, ptr %10, align 8, !tbaa !4
  %62 = load i8, ptr %11, align 1, !tbaa !9
  %63 = load i8, ptr %12, align 1, !tbaa !11
  %64 = load ptr, ptr %17, align 8, !tbaa !21
  %65 = getelementptr inbounds nuw %"struct.rocksdb::TieredSecondaryCache::CreateContext", ptr %64, i32 0, i32 3
  %66 = load ptr, ptr %65, align 8, !tbaa !45
  %67 = load ptr, ptr %14, align 8, !tbaa !15
  %68 = load ptr, ptr %15, align 8, !tbaa !17
  %69 = load ptr, ptr %16, align 8, !tbaa !19
  call void %60(ptr dead_on_unwind writable sret(%"class.rocksdb::Status") align 8 %0, ptr noundef nonnull align 8 dereferenceable(16) %61, i8 noundef zeroext %62, i8 noundef zeroext %63, ptr noundef %66, ptr noundef %67, ptr noundef %68, ptr noundef %69)
  call void @llvm.lifetime.end.p0(i64 8, ptr %17) #11
  ret void

70:                                               ; preds = %47
  %71 = load ptr, ptr %19, align 8
  %72 = load i32, ptr %20, align 4
  %73 = insertvalue { ptr, i32 } poison, ptr %71, 0
  %74 = insertvalue { ptr, i32 } %73, i32 %72, 1
  resume { ptr, i32 } %74
}