; Function Attrs: mustprogress uwtable
define void @_ZN7rocksdb20TieredSecondaryCache20MaybeInsertAndCreateERKNS_5SliceENS_15CompressionTypeENS_9CacheTierEPNS_5Cache13CreateContextEPNS_15MemoryAllocatorEPPvPm(ptr dead_on_unwind noalias writable sret(%"class.rocksdb::Status") align 8 %0, ptr noundef nonnull align 8 dereferenceable(16) %1, i8 noundef zeroext %2, i8 noundef zeroext %3, ptr noundef readonly captures(none) %4, ptr noundef %5, ptr noundef %6, ptr noundef %7) #0 align 2 personality ptr @__gxx_personality_v0 {
  %9 = alloca %"class.rocksdb::Status", align 8
  %10 = getelementptr inbounds nuw i8, ptr %4, i64 8
  %11 = load i8, ptr %10, align 8, !tbaa !4, !range !20, !noundef !21
  %12 = trunc nuw i8 %11 to i1
  %13 = icmp eq i8 %2, 0
  %or.cond.not = or i1 %13, %12
  br i1 %or.cond.not, label %29, label %14

14:                                               ; preds = %8
  call void @llvm.lifetime.start.p0(i64 16, ptr nonnull %9) #17
  %15 = getelementptr inbounds nuw i8, ptr %4, i64 48
  %16 = load ptr, ptr %15, align 8, !tbaa !22
  %17 = load ptr, ptr %4, align 8, !tbaa !23
  %18 = load ptr, ptr %16, align 8, !tbaa !24
  %19 = getelementptr inbounds nuw i8, ptr %18, i64 160
  %20 = load ptr, ptr %19, align 8
  call void %20(ptr dead_on_unwind nonnull writable sret(%"class.rocksdb::Status") align 8 %9, ptr noundef nonnull align 8 dereferenceable(32) %16, ptr noundef nonnull align 8 dereferenceable(16) %17, ptr noundef nonnull align 8 dereferenceable(16) %1, i8 noundef zeroext %2, i8 noundef zeroext %3)
  %21 = getelementptr inbounds nuw i8, ptr %9, i64 8
  %22 = load ptr, ptr %21, align 8, !tbaa !26
  %.not.i.i = icmp eq ptr %22, null
  br i1 %.not.i.i, label %_ZN7rocksdb6StatusD2Ev.exit, label %_ZNKSt14default_deleteIA_KcEclIS0_EENSt9enable_ifIXsr14is_convertibleIPA_T_PS1_EE5valueEvE4typeEPS5_.exit.i.i

_ZNKSt14default_deleteIA_KcEclIS0_EENSt9enable_ifIXsr14is_convertibleIPA_T_PS1_EE5valueEvE4typeEPS5_.exit.i.i: ; preds = %14
  call void @_ZdaPv(ptr noundef nonnull %22) #18
  br label %_ZN7rocksdb6StatusD2Ev.exit

_ZN7rocksdb6StatusD2Ev.exit:                      ; preds = %14, %_ZNKSt14default_deleteIA_KcEclIS0_EENSt9enable_ifIXsr14is_convertibleIPA_T_PS1_EE5valueEvE4typeEPS5_.exit.i.i
  call void @llvm.lifetime.end.p0(i64 16, ptr nonnull %9) #17
  %23 = getelementptr inbounds nuw i8, ptr %4, i64 56
  %24 = load ptr, ptr %23, align 8, !tbaa !28
  %.not.i = icmp eq ptr %24, null
  br i1 %.not.i, label %_ZN7rocksdb10RecordTickEPNS_10StatisticsEjm.exit, label %25

25:                                               ; preds = %_ZN7rocksdb6StatusD2Ev.exit
  %26 = load ptr, ptr %24, align 8, !tbaa !24
  %27 = getelementptr inbounds nuw i8, ptr %26, i64 176
  %28 = load ptr, ptr %27, align 8
  call void %28(ptr noundef nonnull align 8 dereferenceable(33) %24, i32 noundef 33, i64 noundef 1)
  br label %_ZN7rocksdb10RecordTickEPNS_10StatisticsEjm.exit

29:                                               ; preds = %8
  %30 = getelementptr inbounds nuw i8, ptr %4, i64 56
  %31 = load ptr, ptr %30, align 8, !tbaa !28
  %.not.i25 = icmp eq ptr %31, null
  br i1 %.not.i25, label %_ZN7rocksdb10RecordTickEPNS_10StatisticsEjm.exit, label %32

32:                                               ; preds = %29
  %33 = load ptr, ptr %31, align 8, !tbaa !24
  %34 = getelementptr inbounds nuw i8, ptr %33, i64 176
  %35 = load ptr, ptr %34, align 8
  tail call void %35(ptr noundef nonnull align 8 dereferenceable(33) %31, i32 noundef 34, i64 noundef 1)
  br label %_ZN7rocksdb10RecordTickEPNS_10StatisticsEjm.exit

_ZN7rocksdb10RecordTickEPNS_10StatisticsEjm.exit: ; preds = %32, %29, %25, %_ZN7rocksdb6StatusD2Ev.exit
  %36 = getelementptr inbounds nuw i8, ptr %4, i64 16
  %37 = load ptr, ptr %36, align 8, !tbaa !29
  %38 = getelementptr inbounds nuw i8, ptr %37, i64 24
  %39 = load ptr, ptr %38, align 8, !tbaa !30
  %40 = getelementptr inbounds nuw i8, ptr %4, i64 24
  %41 = load ptr, ptr %40, align 8, !tbaa !33
  call void %39(ptr dead_on_unwind writable sret(%"class.rocksdb::Status") align 8 %0, ptr noundef nonnull align 8 dereferenceable(16) %1, i8 noundef zeroext %2, i8 noundef zeroext %3, ptr noundef %41, ptr noundef %5, ptr noundef %6, ptr noundef %7)
  ret void
}